target datalayout = "e-m:e-p270:32:32-p271:32:32-p272:64:64-i64:64-i128:128-f80:128-n8:16:32:64-S128"
target triple = "x86_64-pc-linux-gnu"

%struct.AVProbeData = type { ptr, ptr, i32, ptr }

; Function Attrs: alwaysinline nounwind willreturn memory(none) uwtable
define internal i32 @av_bswap32(i32 noundef %0) #3 {
  %2 = alloca i32, align 4
  store i32 %0, ptr %2, align 4, !tbaa !9
  %3 = load i32, ptr %2, align 4, !tbaa !9
  %4 = shl i32 %3, 8
  %5 = and i32 %4, 65280
  %6 = load i32, ptr %2, align 4, !tbaa !9
  %7 = lshr i32 %6, 8
  %8 = and i32 %7, 255
  %9 = or i32 %5, %8
  %10 = shl i32 %9, 16
  %11 = load i32, ptr %2, align 4, !tbaa !9
  %12 = lshr i32 %11, 16
  %13 = shl i32 %12, 8
  %14 = and i32 %13, 65280
  %15 = load i32, ptr %2, align 4, !tbaa !9
  %16 = lshr i32 %15, 16
  %17 = lshr i32 %16, 8
  %18 = and i32 %17, 255
  %19 = or i32 %14, %18
  %20 = or i32 %10, %19
  ret i32 %20
}

; Function Attrs: inlinehint nounwind willreturn memory(none) uwtable
define internal i64 @av_bswap64(i64 noundef %0) #2 {
  %2 = alloca i64, align 8
  store i64 %0, ptr %2, align 8, !tbaa !71
  %3 = load i64, ptr %2, align 8, !tbaa !71
  %4 = trunc i64 %3 to i32
  %5 = call i32 @av_bswap32(i32 noundef %4) #7
  %6 = zext i32 %5 to i64
  %7 = shl i64 %6, 32
  %8 = load i64, ptr %2, align 8, !tbaa !71
  %9 = lshr i64 %8, 32
  %10 = trunc i64 %9 to i32
  %11 = call i32 @av_bswap32(i32 noundef %10) #7
  %12 = zext i32 %11 to i64
  %13 = or i64 %7, %12
  ret i64 %13
}

; Function Attrs: nounwind uwtable
define internal i32 @probe(ptr noundef %0) #0 {
  %2 = alloca i32, align 4
  %3 = alloca ptr, align 8
  %4 = alloca i32, align 4
  %5 = alloca i32, align 4
  %6 = alloca i32, align 4
  %7 = alloca i32, align 4
  %8 = alloca i32, align 4
  store ptr %0, ptr %3, align 8, !tbaa !4
  call void @llvm.lifetime.start.p0(i64 4, ptr %4) #6
  call void @llvm.lifetime.start.p0(i64 4, ptr %5) #6
  call void @llvm.lifetime.start.p0(i64 4, ptr %6) #6
  store i32 0, ptr %6, align 4, !tbaa !9
  %9 = load ptr, ptr %3, align 8, !tbaa !4
  %10 = getelementptr inbounds nuw %struct.AVProbeData, ptr %9, i32 0, i32 2
  %11 = load i32, ptr %10, align 8, !tbaa !11
  %12 = icmp slt i32 %11, 22
  br i1 %12, label %28, label %13

13:                                               ; preds = %1
  %14 = load ptr, ptr %3, align 8, !tbaa !4
  %15 = getelementptr inbounds nuw %struct.AVProbeData, ptr %14, i32 0, i32 1
  %16 = load ptr, ptr %15, align 8, !tbaa !14
  %17 = load i16, ptr %16, align 1, !tbaa !15
  %18 = zext i16 %17 to i32
  %19 = icmp ne i32 %18, 0
  br i1 %19, label %28, label %20

20:                                               ; preds = %13
  %21 = load ptr, ptr %3, align 8, !tbaa !4
  %22 = getelementptr inbounds nuw %struct.AVProbeData, ptr %21, i32 0, i32 1
  %23 = load ptr, ptr %22, align 8, !tbaa !14
  %24 = getelementptr inbounds i8, ptr %23, i64 2
  %25 = load i16, ptr %24, align 1, !tbaa !15
  %26 = zext i16 %25 to i32
  %27 = icmp ne i32 %26, 1
  br i1 %27, label %28, label %29

28:                                               ; preds = %20, %13, %1
  store i32 0, ptr %2, align 4
  store i32 1, ptr %7, align 4
  br label %192

29:                                               ; preds = %20
  %30 = load ptr, ptr %3, align 8, !tbaa !4
  %31 = getelementptr inbounds nuw %struct.AVProbeData, ptr %30, i32 0, i32 1
  %32 = load ptr, ptr %31, align 8, !tbaa !14
  %33 = getelementptr inbounds i8, ptr %32, i64 4
  %34 = load i16, ptr %33, align 1, !tbaa !15
  %35 = zext i16 %34 to i32
  store i32 %35, ptr %5, align 4, !tbaa !9
  %36 = load i32, ptr %5, align 4, !tbaa !9
  %37 = icmp ne i32 %36, 0
  br i1 %37, label %39, label %38

38:                                               ; preds = %29
  store i32 0, ptr %2, align 4
  store i32 1, ptr %7, align 4
  br label %192

39:                                               ; preds = %29
  store i32 0, ptr %4, align 4, !tbaa !9
  br label %40

40:                                               ; preds = %175, %39
  %41 = load i32, ptr %4, align 4, !tbaa !9
  %42 = load i32, ptr %5, align 4, !tbaa !9
  %43 = icmp ult i32 %41, %42
  br i1 %43, label %44, label %52

44:                                               ; preds = %40
  %45 = load i32, ptr %4, align 4, !tbaa !9
  %46 = mul i32 %45, 16
  %47 = add i32 %46, 22
  %48 = load ptr, ptr %3, align 8, !tbaa !4
  %49 = getelementptr inbounds nuw %struct.AVProbeData, ptr %48, i32 0, i32 2
  %50 = load i32, ptr %49, align 8, !tbaa !11
  %51 = icmp ule i32 %47, %50
  br label %52

52:                                               ; preds = %44, %40
  %53 = phi i1 [ false, %40 ], [ %51, %44 ]
  br i1 %53, label %54, label %178

54:                                               ; preds = %52
  call void @llvm.lifetime.start.p0(i64 4, ptr %8) #6
  %55 = load ptr, ptr %3, align 8, !tbaa !4
  %56 = getelementptr inbounds nuw %struct.AVProbeData, ptr %55, i32 0, i32 1
  %57 = load ptr, ptr %56, align 8, !tbaa !14
  %58 = getelementptr inbounds i8, ptr %57, i64 10
  %59 = load i32, ptr %4, align 4, !tbaa !9
  %60 = mul i32 %59, 16
  %61 = zext i32 %60 to i64
  %62 = getelementptr inbounds nuw i8, ptr %58, i64 %61
  %63 = load i16, ptr %62, align 1, !tbaa !15
  %64 = zext i16 %63 to i32
  %65 = and i32 %64, -2
  %66 = icmp ne i32 %65, 0
  br i1 %66, label %67, label %75

67:                                               ; preds = %54
  %68 = load i32, ptr %4, align 4, !tbaa !9
  %69 = icmp ugt i32 %68, 25
  br i1 %69, label %70, label %71

70:                                               ; preds = %67
  br label %73

71:                                               ; preds = %67
  %72 = load i32, ptr %4, align 4, !tbaa !9
  br label %73

73:                                               ; preds = %71, %70
  %74 = phi i32 [ 25, %70 ], [ %72, %71 ]
  store i32 %74, ptr %2, align 4
  store i32 1, ptr %7, align 4
  br label %172

75:                                               ; preds = %54
  %76 = load ptr, ptr %3, align 8, !tbaa !4
  %77 = getelementptr inbounds nuw %struct.AVProbeData, ptr %76, i32 0, i32 1
  %78 = load ptr, ptr %77, align 8, !tbaa !14
  %79 = load i32, ptr %4, align 4, !tbaa !9
  %80 = mul i32 %79, 16
  %81 = add i32 13, %80
  %82 = zext i32 %81 to i64
  %83 = getelementptr inbounds nuw i8, ptr %78, i64 %82
  %84 = load i8, ptr %83, align 1, !tbaa !15
  %85 = icmp ne i8 %84, 0
  br i1 %85, label %86, label %94

86:                                               ; preds = %75
  %87 = load i32, ptr %4, align 4, !tbaa !9
  %88 = icmp ugt i32 %87, 25
  br i1 %88, label %89, label %90

89:                                               ; preds = %86
  br label %92

90:                                               ; preds = %86
  %91 = load i32, ptr %4, align 4, !tbaa !9
  br label %92

92:                                               ; preds = %90, %89
  %93 = phi i32 [ 25, %89 ], [ %91, %90 ]
  store i32 %93, ptr %2, align 4
  store i32 1, ptr %7, align 4
  br label %172

94:                                               ; preds = %75
  %95 = load ptr, ptr %3, align 8, !tbaa !4
  %96 = getelementptr inbounds nuw %struct.AVProbeData, ptr %95, i32 0, i32 1
  %97 = load ptr, ptr %96, align 8, !tbaa !14
  %98 = getelementptr inbounds i8, ptr %97, i64 14
  %99 = load i32, ptr %4, align 4, !tbaa !9
  %100 = mul i32 %99, 16
  %101 = zext i32 %100 to i64
  %102 = getelementptr inbounds nuw i8, ptr %98, i64 %101
  %103 = load i32, ptr %102, align 1, !tbaa !15
  %104 = icmp ult i32 %103, 40
  br i1 %104, label %105, label %113

105:                                              ; preds = %94
  %106 = load i32, ptr %4, align 4, !tbaa !9
  %107 = icmp ugt i32 %106, 25
  br i1 %107, label %108, label %109

108:                                              ; preds = %105
  br label %111

109:                                              ; preds = %105
  %110 = load i32, ptr %4, align 4, !tbaa !9
  br label %111

111:                                              ; preds = %109, %108
  %112 = phi i32 [ 25, %108 ], [ %110, %109 ]
  store i32 %112, ptr %2, align 4
  store i32 1, ptr %7, align 4
  br label %172

113:                                              ; preds = %94
  %114 = load ptr, ptr %3, align 8, !tbaa !4
  %115 = getelementptr inbounds nuw %struct.AVProbeData, ptr %114, i32 0, i32 1
  %116 = load ptr, ptr %115, align 8, !tbaa !14
  %117 = getelementptr inbounds i8, ptr %116, i64 18
  %118 = load i32, ptr %4, align 4, !tbaa !9
  %119 = mul i32 %118, 16
  %120 = zext i32 %119 to i64
  %121 = getelementptr inbounds nuw i8, ptr %117, i64 %120
  %122 = load i32, ptr %121, align 1, !tbaa !15
  store i32 %122, ptr %8, align 4, !tbaa !9
  %123 = load i32, ptr %8, align 4, !tbaa !9
  %124 = icmp ult i32 %123, 22
  br i1 %124, label %125, label %133

125:                                              ; preds = %113
  %126 = load i32, ptr %4, align 4, !tbaa !9
  %127 = icmp ugt i32 %126, 25
  br i1 %127, label %128, label %129

128:                                              ; preds = %125
  br label %131

129:                                              ; preds = %125
  %130 = load i32, ptr %4, align 4, !tbaa !9
  br label %131

131:                                              ; preds = %129, %128
  %132 = phi i32 [ 25, %128 ], [ %130, %129 ]
  store i32 %132, ptr %2, align 4
  store i32 1, ptr %7, align 4
  br label %172

133:                                              ; preds = %113
  %134 = load i32, ptr %8, align 4, !tbaa !9
  %135 = load ptr, ptr %3, align 8, !tbaa !4
  %136 = getelementptr inbounds nuw %struct.AVProbeData, ptr %135, i32 0, i32 2
  %137 = load i32, ptr %136, align 8, !tbaa !11
  %138 = sub nsw i32 %137, 8
  %139 = icmp ugt i32 %134, %138
  br i1 %139, label %140, label %141

140:                                              ; preds = %133
  store i32 4, ptr %7, align 4
  br label %172

141:                                              ; preds = %133
  %142 = load ptr, ptr %3, align 8, !tbaa !4
  %143 = getelementptr inbounds nuw %struct.AVProbeData, ptr %142, i32 0, i32 1
  %144 = load ptr, ptr %143, align 8, !tbaa !14
  %145 = load i32, ptr %8, align 4, !tbaa !9
  %146 = zext i32 %145 to i64
  %147 = getelementptr inbounds nuw i8, ptr %144, i64 %146
  %148 = load i8, ptr %147, align 1, !tbaa !15
  %149 = zext i8 %148 to i32
  %150 = icmp ne i32 %149, 40
  br i1 %150, label %151, label %169

151:                                              ; preds = %141
  %152 = load ptr, ptr %3, align 8, !tbaa !4
  %153 = getelementptr inbounds nuw %struct.AVProbeData, ptr %152, i32 0, i32 1
  %154 = load ptr, ptr %153, align 8, !tbaa !14
  %155 = load i32, ptr %8, align 4, !tbaa !9
  %156 = zext i32 %155 to i64
  %157 = getelementptr inbounds nuw i8, ptr %154, i64 %156
  %158 = load i64, ptr %157, align 1, !tbaa !15
  %159 = call i64 @av_bswap64(i64 noundef %158) #7
  %160 = icmp ne i64 %159, -8552249625308161526
  br i1 %160, label %161, label %169

161:                                              ; preds = %151
  %162 = load i32, ptr %4, align 4, !tbaa !9
  %163 = icmp ugt i32 %162, 25
  br i1 %163, label %164, label %165

164:                                              ; preds = %161
  br label %167

165:                                              ; preds = %161
  %166 = load i32, ptr %4, align 4, !tbaa !9
  br label %167

167:                                              ; preds = %165, %164
  %168 = phi i32 [ 25, %164 ], [ %166, %165 ]
  store i32 %168, ptr %2, align 4
  store i32 1, ptr %7, align 4
  br label %172

169:                                              ; preds = %151, %141
  %170 = load i32, ptr %6, align 4, !tbaa !9
  %171 = add i32 %170, 1
  store i32 %171, ptr %6, align 4, !tbaa !9
  store i32 0, ptr %7, align 4
  br label %172

172:                                              ; preds = %169, %167, %140, %131, %111, %92, %73
  call void @llvm.lifetime.end.p0(i64 4, ptr %8) #6
  %173 = load i32, ptr %7, align 4
  switch i32 %173, label %192 [
    i32 0, label %174
    i32 4, label %175
  ]

174:                                              ; preds = %172
  br label %175

175:                                              ; preds = %174, %172
  %176 = load i32, ptr %4, align 4, !tbaa !9
  %177 = add i32 %176, 1
  store i32 %177, ptr %4, align 4, !tbaa !9
  br label %40, !llvm.loop !16

178:                                              ; preds = %52
  %179 = load i32, ptr %6, align 4, !tbaa !9
  %180 = load i32, ptr %5, align 4, !tbaa !9
  %181 = icmp ult i32 %179, %180
  br i1 %181, label %182, label %191

182:                                              ; preds = %178
  %183 = load i32, ptr %6, align 4, !tbaa !9
  %184 = icmp ugt i32 %183, 1
  br i1 %184, label %185, label %186

185:                                              ; preds = %182
  br label %188

186:                                              ; preds = %182
  %187 = load i32, ptr %6, align 4, !tbaa !9
  br label %188

188:                                              ; preds = %186, %185
  %189 = phi i32 [ 1, %185 ], [ %187, %186 ]
  %190 = add i32 25, %189
  store i32 %190, ptr %2, align 4
  store i32 1, ptr %7, align 4
  br label %192

191:                                              ; preds = %178
  store i32 51, ptr %2, align 4
  store i32 1, ptr %7, align 4
  br label %192

192:                                              ; preds = %191, %188, %172, %38, %28
  call void @llvm.lifetime.end.p0(i64 4, ptr %6) #6
  call void @llvm.lifetime.end.p0(i64 4, ptr %5) #6
  call void @llvm.lifetime.end.p0(i64 4, ptr %4) #6
  %193 = load i32, ptr %2, align 4
  ret i32 %193
}