; Function Attrs: nofree norecurse nosync nounwind memory(read, inaccessiblemem: none) uwtable
define internal range(i32 0, 52) i32 @probe(ptr noundef readonly captures(none) %0) #0 {
  %2 = getelementptr inbounds nuw i8, ptr %0, i64 16
  %3 = load i32, ptr %2, align 8, !tbaa !4
  %4 = icmp slt i32 %3, 22
  br i1 %4, label %.thread, label %5

5:                                                ; preds = %1
  %6 = getelementptr inbounds nuw i8, ptr %0, i64 8
  %7 = load ptr, ptr %6, align 8, !tbaa !11
  %8 = load i16, ptr %7, align 1, !tbaa !12
  %.not = icmp eq i16 %8, 0
  br i1 %.not, label %9, label %.thread

9:                                                ; preds = %5
  %10 = getelementptr inbounds nuw i8, ptr %7, i64 2
  %11 = load i16, ptr %10, align 1, !tbaa !12
  %.not48 = icmp eq i16 %11, 1
  br i1 %.not48, label %12, label %.thread

12:                                               ; preds = %9
  %13 = getelementptr inbounds nuw i8, ptr %7, i64 4
  %14 = load i16, ptr %13, align 1, !tbaa !12
  %15 = zext i16 %14 to i32
  %.not49 = icmp eq i16 %14, 0
  br i1 %.not49, label %.thread, label %.preheader

.preheader:                                       ; preds = %12
  %invariant.gep = getelementptr inbounds nuw i8, ptr %7, i64 13
  %16 = getelementptr inbounds nuw i8, ptr %7, i64 10
  %17 = getelementptr inbounds nuw i8, ptr %7, i64 14
  %18 = getelementptr inbounds nuw i8, ptr %7, i64 18
  %19 = add nsw i32 %3, -8
  %20 = zext nneg i32 %3 to i64
  %wide.trip.count = zext i16 %14 to i64
  br label %21

21:                                               ; preds = %.preheader, %62
  %indvars.iv = phi i64 [ 0, %.preheader ], [ %indvars.iv.next, %62 ]
  %.04271 = phi i32 [ 0, %.preheader ], [ %.143, %62 ]
  %22 = shl nuw nsw i64 %indvars.iv, 4
  %23 = add nuw nsw i64 %22, 22
  %.not50 = icmp samesign ugt i64 %23, %20
  br i1 %.not50, label %.critedge, label %24

24:                                               ; preds = %21
  %25 = getelementptr inbounds nuw i8, ptr %16, i64 %22
  %26 = load i16, ptr %25, align 1, !tbaa !12
  %.not52 = icmp ult i16 %26, 2
  br i1 %.not52, label %30, label %27

27:                                               ; preds = %24
  %28 = trunc nuw nsw i64 %indvars.iv to i32
  %29 = tail call i32 @llvm.umin.i32(i32 %28, i32 25)
  br label %.thread

30:                                               ; preds = %24
  %gep = getelementptr inbounds nuw i8, ptr %invariant.gep, i64 %22
  %31 = load i8, ptr %gep, align 1, !tbaa !12
  %.not53 = icmp eq i8 %31, 0
  br i1 %.not53, label %35, label %32

32:                                               ; preds = %30
  %33 = trunc nuw nsw i64 %indvars.iv to i32
  %34 = tail call i32 @llvm.umin.i32(i32 %33, i32 25)
  br label %.thread

35:                                               ; preds = %30
  %36 = getelementptr inbounds nuw i8, ptr %17, i64 %22
  %37 = load i32, ptr %36, align 1, !tbaa !12
  %38 = icmp ult i32 %37, 40
  br i1 %38, label %39, label %42

39:                                               ; preds = %35
  %40 = trunc nuw nsw i64 %indvars.iv to i32
  %41 = tail call i32 @llvm.umin.i32(i32 %40, i32 25)
  br label %.thread

42:                                               ; preds = %35
  %43 = getelementptr inbounds nuw i8, ptr %18, i64 %22
  %44 = load i32, ptr %43, align 1, !tbaa !12
  %45 = icmp ult i32 %44, 22
  br i1 %45, label %46, label %49

46:                                               ; preds = %42
  %47 = trunc nuw nsw i64 %indvars.iv to i32
  %48 = tail call i32 @llvm.umin.i32(i32 %47, i32 25)
  br label %.thread

49:                                               ; preds = %42
  %50 = icmp ugt i32 %44, %19
  br i1 %50, label %62, label %51

51:                                               ; preds = %49
  %52 = zext i32 %44 to i64
  %53 = getelementptr inbounds nuw i8, ptr %7, i64 %52
  %54 = load i8, ptr %53, align 1, !tbaa !12
  %.not54 = icmp eq i8 %54, 40
  br i1 %.not54, label %60, label %55

55:                                               ; preds = %51
  %56 = load i64, ptr %53, align 1, !tbaa !12
  %.not55 = icmp eq i64 %56, 727905341920923785
  br i1 %.not55, label %60, label %57

57:                                               ; preds = %55
  %58 = trunc nuw nsw i64 %indvars.iv to i32
  %59 = tail call i32 @llvm.umin.i32(i32 %58, i32 25)
  br label %.thread

60:                                               ; preds = %55, %51
  %61 = add i32 %.04271, 1
  br label %62

62:                                               ; preds = %60, %49
  %.143 = phi i32 [ %61, %60 ], [ %.04271, %49 ]
  %indvars.iv.next = add nuw nsw i64 %indvars.iv, 1
  %exitcond.not = icmp eq i64 %indvars.iv.next, %wide.trip.count
  br i1 %exitcond.not, label %.critedge, label %21, !llvm.loop !13

.critedge:                                        ; preds = %62, %21
  %.042.lcssa = phi i32 [ %.143, %62 ], [ %.04271, %21 ]
  %63 = icmp ult i32 %.042.lcssa, %15
  br i1 %63, label %64, label %.thread

64:                                               ; preds = %.critedge
  %.not51 = icmp eq i32 %.042.lcssa, 0
  %65 = select i1 %.not51, i32 25, i32 26
  br label %.thread

.thread:                                          ; preds = %57, %46, %39, %32, %27, %.critedge, %12, %1, %5, %9, %64
  %.0 = phi i32 [ %65, %64 ], [ 0, %9 ], [ 0, %5 ], [ 0, %1 ], [ 0, %12 ], [ 51, %.critedge ], [ %59, %57 ], [ %48, %46 ], [ %41, %39 ], [ %34, %32 ], [ %29, %27 ]
  ret i32 %.0
}